; Listing generated by Microsoft (R) Optimizing Compiler Version 19.00.23026.0 

include listing.inc

INCLUDELIB MSVCRTD
INCLUDELIB OLDNAMES

CONST	SEGMENT
$SG134197 DB	'C:\Qt\Qt5.8.0\5.8\msvc2015_64\include\QtCore/qmetatype.h'
	DB	00H
	ORG $+7
$SG134198 DB	'qRegisterNormalizedMetaType was called with a not normal'
	DB	'ized type name, please call qRegisterMetaType instead.', 00H
	ORG $+1
$SG134199 DB	'qRegisterNormalizedMetaType', 00H
	ORG $+4
$SG132341 DB	'C:\Qt\Qt5.8.0\5.8\msvc2015_64\include\QtCore/qmetatype.h'
	DB	00H
	ORG $+7
?qt_meta_stringdata_redo_undo@@3Uqt_meta_stringdata_redo_undo_t@@B DD 0ffffffffH ; qt_meta_stringdata_redo_undo
	DD	09H
	DD	00H
	ORG $+4
	DQ	0000000000000048H
	DD	0ffffffffH
	DD	09H
	DD	00H
	ORG $+4
	DQ	000000000000003aH
	DD	0ffffffffH
	DD	00H
	DD	00H
	ORG $+4
	DQ	000000000000002cH
	DB	'redo_undo', 00H, 'save_data', 00H, 00H
	ORG $+3
$SG132342 DB	'qRegisterNormalizedMetaType was called with a not normal'
	DB	'ized type name, please call qRegisterMetaType instead.', 00H
	ORG $+1
$SG132343 DB	'qRegisterNormalizedMetaType', 00H
	ORG $+4
?qt_meta_data_redo_undo@@3QBIB DD 07H			; qt_meta_data_redo_undo
	DD	00H
	DD	00H
	DD	00H
	DD	01H
	DD	0eH
	DD	00H
	DD	00H
	DD	00H
	DD	00H
	DD	00H
	DD	00H
	DD	00H
	DD	00H
	DD	01H
	DD	00H
	DD	013H
	DD	02H
	DD	08H
	DD	02bH
	DD	00H
	ORG $+4
$SG133563 DB	'C:\Qt\Qt5.8.0\5.8\msvc2015_64\include\QtCore/qmetatype.h'
	DB	00H
	ORG $+15
$SG133564 DB	'qRegisterNormalizedMetaType was called with a not normal'
	DB	'ized type name, please call qRegisterMetaType instead.', 00H
	ORG $+1
$SG133565 DB	'qRegisterNormalizedMetaType', 00H
	ORG $+4
$SG132658 DB	'C:\Qt\Qt5.8.0\5.8\msvc2015_64\include\QtCore/qmetatype.h'
	DB	00H
	ORG $+7
$SG132659 DB	'qRegisterNormalizedMetaType was called with a not normal'
	DB	'ized type name, please call qRegisterMetaType instead.', 00H
	ORG $+1
$SG132660 DB	'qRegisterNormalizedMetaType', 00H
	ORG $+4
$SG133880 DB	'C:\Qt\Qt5.8.0\5.8\msvc2015_64\include\QtCore/qmetatype.h'
	DB	00H
	ORG $+7
$SG133881 DB	'qRegisterNormalizedMetaType was called with a not normal'
	DB	'ized type name, please call qRegisterMetaType instead.', 00H
	ORG $+1
$SG133882 DB	'qRegisterNormalizedMetaType', 00H
	ORG $+4
$SG132024 DB	'C:\Qt\Qt5.8.0\5.8\msvc2015_64\include\QtCore/qmetatype.h'
	DB	00H
	ORG $+7
$SG132025 DB	'qRegisterNormalizedMetaType was called with a not normal'
	DB	'ized type name, please call qRegisterMetaType instead.', 00H
	ORG $+1
$SG132026 DB	'qRegisterNormalizedMetaType', 00H
	ORG $+4
$SG135139 DB	'C:\Qt\Qt5.8.0\5.8\msvc2015_64\include\QtCore/qmetatype.h'
	DB	00H
	ORG $+7
$SG135140 DB	'qRegisterNormalizedMetaType was called with a not normal'
	DB	'ized type name, please call qRegisterMetaType instead.', 00H
	ORG $+1
$SG135141 DB	'qRegisterNormalizedMetaType', 00H
CONST	ENDS
PUBLIC	?__empty_global_delete@@YAXPEAX@Z		; __empty_global_delete
PUBLIC	?__empty_global_delete@@YAXPEAX_K@Z		; __empty_global_delete
PUBLIC	??C?$QScopedPointer@VQObjectData@@U?$QScopedPointerDeleter@VQObjectData@@@@@@QEBAPEAVQObjectData@@XZ ; QScopedPointer<QObjectData,QScopedPointerDeleter<QObjectData> >::operator->
PUBLIC	?metaObject@redo_undo@@UEBAPEBUQMetaObject@@XZ	; redo_undo::metaObject
PUBLIC	?qt_metacast@redo_undo@@UEAAPEAXPEBD@Z		; redo_undo::qt_metacast
PUBLIC	?qt_metacall@redo_undo@@UEAAHW4Call@QMetaObject@@HPEAPEAX@Z ; redo_undo::qt_metacall
PUBLIC	?qt_static_metacall@redo_undo@@CAXPEAVQObject@@W4Call@QMetaObject@@HPEAPEAX@Z ; redo_undo::qt_static_metacall
PUBLIC	?staticMetaObject@redo_undo@@2UQMetaObject@@B	; redo_undo::staticMetaObject
EXTRN	strcmp:PROC
EXTRN	__imp_?dynamicMetaObject@QObjectData@@QEBAPEAUQMetaObject@@XZ:PROC
EXTRN	__imp_?qt_metacast@QWidget@@UEAAPEAXPEBD@Z:PROC
EXTRN	__imp_?qt_metacall@QWidget@@UEAAHW4Call@QMetaObject@@HPEAPEAX@Z:PROC
EXTRN	?save_data@redo_undo@@AEAAXXZ:PROC		; redo_undo::save_data
EXTRN	__imp_?staticMetaObject@QWidget@@2UQMetaObject@@B:BYTE
_BSS	SEGMENT
?staticMetaObject@redo_undo@@2UQMetaObject@@B DB 030H DUP (?) ; redo_undo::staticMetaObject
_BSS	ENDS
pdata	SEGMENT
$pdata$?metaObject@redo_undo@@UEBAPEBUQMetaObject@@XZ DD imagerel $LN5
	DD	imagerel $LN5+88
	DD	imagerel $unwind$?metaObject@redo_undo@@UEBAPEBUQMetaObject@@XZ
$pdata$?qt_metacast@redo_undo@@UEAAPEAXPEBD@Z DD imagerel $LN5
	DD	imagerel $LN5+75
	DD	imagerel $unwind$?qt_metacast@redo_undo@@UEAAPEAXPEBD@Z
$pdata$?qt_metacall@redo_undo@@UEAAHW4Call@QMetaObject@@HPEAPEAX@Z DD imagerel $LN9
	DD	imagerel $LN9+172
	DD	imagerel $unwind$?qt_metacall@redo_undo@@UEAAHW4Call@QMetaObject@@HPEAPEAX@Z
$pdata$?qt_static_metacall@redo_undo@@CAXPEAVQObject@@W4Call@QMetaObject@@HPEAPEAX@Z DD imagerel $LN8
	DD	imagerel $LN8+72
	DD	imagerel $unwind$?qt_static_metacall@redo_undo@@CAXPEAVQObject@@W4Call@QMetaObject@@HPEAPEAX@Z
pdata	ENDS
CRT$XCU	SEGMENT
??staticMetaObject$initializer$@redo_undo@@2P6AXXZEA@@3P6AXXZEA DQ FLAT:??__E?staticMetaObject@redo_undo@@2UQMetaObject@@B@@YAXXZ ; ??staticMetaObject$initializer$@redo_undo@@2P6AXXZEA@@3P6AXXZEA
CRT$XCU	ENDS
xdata	SEGMENT
$unwind$?metaObject@redo_undo@@UEBAPEBUQMetaObject@@XZ DD 010901H
	DD	06209H
$unwind$?qt_metacast@redo_undo@@UEAAPEAXPEBD@Z DD 010e01H
	DD	0420eH
$unwind$?qt_metacall@redo_undo@@UEAAHW4Call@QMetaObject@@HPEAPEAX@Z DD 011701H
	DD	04217H
$unwind$?qt_static_metacall@redo_undo@@CAXPEAVQObject@@W4Call@QMetaObject@@HPEAPEAX@Z DD 011701H
	DD	06217H
xdata	ENDS
; Function compile flags: /Odtp
;	COMDAT ??__E?staticMetaObject@redo_undo@@2UQMetaObject@@B@@YAXXZ
text$di	SEGMENT
??__E?staticMetaObject@redo_undo@@2UQMetaObject@@B@@YAXXZ PROC ; `dynamic initializer for 'redo_undo::staticMetaObject'', COMDAT
; File h:\project_learn\redo_undo\redo_undo\generatedfiles\debug\moc_redo_undo.cpp
; Line 79
	mov	rax, QWORD PTR __imp_?staticMetaObject@QWidget@@2UQMetaObject@@B
	mov	QWORD PTR ?staticMetaObject@redo_undo@@2UQMetaObject@@B, rax
	lea	rax, OFFSET FLAT:?qt_meta_stringdata_redo_undo@@3Uqt_meta_stringdata_redo_undo_t@@B
	mov	QWORD PTR ?staticMetaObject@redo_undo@@2UQMetaObject@@B+8, rax
; Line 80
	lea	rax, OFFSET FLAT:?qt_meta_data_redo_undo@@3QBIB
	mov	QWORD PTR ?staticMetaObject@redo_undo@@2UQMetaObject@@B+16, rax
	lea	rax, OFFSET FLAT:?qt_static_metacall@redo_undo@@CAXPEAVQObject@@W4Call@QMetaObject@@HPEAPEAX@Z ; redo_undo::qt_static_metacall
	mov	QWORD PTR ?staticMetaObject@redo_undo@@2UQMetaObject@@B+24, rax
	mov	QWORD PTR ?staticMetaObject@redo_undo@@2UQMetaObject@@B+32, 0
	mov	QWORD PTR ?staticMetaObject@redo_undo@@2UQMetaObject@@B+40, 0
	ret	0
??__E?staticMetaObject@redo_undo@@2UQMetaObject@@B@@YAXXZ ENDP ; `dynamic initializer for 'redo_undo::staticMetaObject''
text$di	ENDS
; Function compile flags: /Odtp
_TEXT	SEGMENT
tv69 = 32
_t$1 = 40
_o$ = 64
_c$ = 72
_id$ = 80
_a$ = 88
?qt_static_metacall@redo_undo@@CAXPEAVQObject@@W4Call@QMetaObject@@HPEAPEAX@Z PROC ; redo_undo::qt_static_metacall
; File h:\project_learn\redo_undo\redo_undo\generatedfiles\debug\moc_redo_undo.cpp
; Line 66
$LN8:
	mov	QWORD PTR [rsp+32], r9
	mov	DWORD PTR [rsp+24], r8d
	mov	DWORD PTR [rsp+16], edx
	mov	QWORD PTR [rsp+8], rcx
	sub	rsp, 56					; 00000038H
; Line 67
	cmp	DWORD PTR _c$[rsp], 0
	jne	SHORT $LN4@qt_static_
; Line 68
	mov	rax, QWORD PTR _o$[rsp]
	mov	QWORD PTR _t$1[rsp], rax
; Line 70
	mov	eax, DWORD PTR _id$[rsp]
	mov	DWORD PTR tv69[rsp], eax
	cmp	DWORD PTR tv69[rsp], 0
	je	SHORT $LN5@qt_static_
	jmp	SHORT $LN6@qt_static_
$LN5@qt_static_:
; Line 71
	mov	rcx, QWORD PTR _t$1[rsp]
	call	?save_data@redo_undo@@AEAAXXZ		; redo_undo::save_data
$LN6@qt_static_:
$LN4@qt_static_:
; Line 76
	add	rsp, 56					; 00000038H
	ret	0
?qt_static_metacall@redo_undo@@CAXPEAVQObject@@W4Call@QMetaObject@@HPEAPEAX@Z ENDP ; redo_undo::qt_static_metacall
_TEXT	ENDS
; Function compile flags: /Odtp
_TEXT	SEGMENT
this$ = 48
_c$ = 56
_id$ = 64
_a$ = 72
?qt_metacall@redo_undo@@UEAAHW4Call@QMetaObject@@HPEAPEAX@Z PROC ; redo_undo::qt_metacall
; File h:\project_learn\redo_undo\redo_undo\generatedfiles\debug\moc_redo_undo.cpp
; Line 98
$LN9:
	mov	QWORD PTR [rsp+32], r9
	mov	DWORD PTR [rsp+24], r8d
	mov	DWORD PTR [rsp+16], edx
	mov	QWORD PTR [rsp+8], rcx
	sub	rsp, 40					; 00000028H
; Line 99
	mov	r9, QWORD PTR _a$[rsp]
	mov	r8d, DWORD PTR _id$[rsp]
	mov	edx, DWORD PTR _c$[rsp]
	mov	rcx, QWORD PTR this$[rsp]
	call	QWORD PTR __imp_?qt_metacall@QWidget@@UEAAHW4Call@QMetaObject@@HPEAPEAX@Z
	mov	DWORD PTR _id$[rsp], eax
; Line 100
	cmp	DWORD PTR _id$[rsp], 0
	jge	SHORT $LN2@qt_metacal
; Line 101
	mov	eax, DWORD PTR _id$[rsp]
	jmp	SHORT $LN1@qt_metacal
$LN2@qt_metacal:
; Line 102
	cmp	DWORD PTR _c$[rsp], 0
	jne	SHORT $LN3@qt_metacal
; Line 103
	cmp	DWORD PTR _id$[rsp], 1
	jge	SHORT $LN5@qt_metacal
; Line 104
	mov	r9, QWORD PTR _a$[rsp]
	mov	r8d, DWORD PTR _id$[rsp]
	mov	edx, DWORD PTR _c$[rsp]
	mov	rcx, QWORD PTR this$[rsp]
	call	?qt_static_metacall@redo_undo@@CAXPEAVQObject@@W4Call@QMetaObject@@HPEAPEAX@Z ; redo_undo::qt_static_metacall
$LN5@qt_metacal:
; Line 105
	mov	eax, DWORD PTR _id$[rsp]
	dec	eax
	mov	DWORD PTR _id$[rsp], eax
	jmp	SHORT $LN4@qt_metacal
$LN3@qt_metacal:
; Line 106
	cmp	DWORD PTR _c$[rsp], 12
	jne	SHORT $LN6@qt_metacal
; Line 107
	cmp	DWORD PTR _id$[rsp], 1
	jge	SHORT $LN7@qt_metacal
; Line 108
	mov	eax, 8
	imul	rax, rax, 0
	mov	rcx, QWORD PTR _a$[rsp]
	mov	rax, QWORD PTR [rcx+rax]
	mov	DWORD PTR [rax], -1
$LN7@qt_metacal:
; Line 109
	mov	eax, DWORD PTR _id$[rsp]
	dec	eax
	mov	DWORD PTR _id$[rsp], eax
$LN6@qt_metacal:
$LN4@qt_metacal:
; Line 111
	mov	eax, DWORD PTR _id$[rsp]
$LN1@qt_metacal:
; Line 112
	add	rsp, 40					; 00000028H
	ret	0
?qt_metacall@redo_undo@@UEAAHW4Call@QMetaObject@@HPEAPEAX@Z ENDP ; redo_undo::qt_metacall
_TEXT	ENDS
; Function compile flags: /Odtp
_TEXT	SEGMENT
this$ = 48
_clname$ = 56
?qt_metacast@redo_undo@@UEAAPEAXPEBD@Z PROC		; redo_undo::qt_metacast
; File h:\project_learn\redo_undo\redo_undo\generatedfiles\debug\moc_redo_undo.cpp
; Line 90
$LN5:
	mov	QWORD PTR [rsp+16], rdx
	mov	QWORD PTR [rsp+8], rcx
	sub	rsp, 40					; 00000028H
; Line 91
	cmp	QWORD PTR _clname$[rsp], 0
	jne	SHORT $LN2@qt_metacas
	xor	eax, eax
	jmp	SHORT $LN1@qt_metacas
$LN2@qt_metacas:
; Line 92
	lea	rdx, OFFSET FLAT:?qt_meta_stringdata_redo_undo@@3Uqt_meta_stringdata_redo_undo_t@@B+72
	mov	rcx, QWORD PTR _clname$[rsp]
	call	strcmp
	test	eax, eax
	jne	SHORT $LN3@qt_metacas
; Line 93
	mov	rax, QWORD PTR this$[rsp]
	jmp	SHORT $LN1@qt_metacas
$LN3@qt_metacas:
; Line 94
	mov	rdx, QWORD PTR _clname$[rsp]
	mov	rcx, QWORD PTR this$[rsp]
	call	QWORD PTR __imp_?qt_metacast@QWidget@@UEAAPEAXPEBD@Z
$LN1@qt_metacas:
; Line 95
	add	rsp, 40					; 00000028H
	ret	0
?qt_metacast@redo_undo@@UEAAPEAXPEBD@Z ENDP		; redo_undo::qt_metacast
_TEXT	ENDS
; Function compile flags: /Odtp
_TEXT	SEGMENT
tv82 = 32
this$ = 64
?metaObject@redo_undo@@UEBAPEBUQMetaObject@@XZ PROC	; redo_undo::metaObject
; File h:\project_learn\redo_undo\redo_undo\generatedfiles\debug\moc_redo_undo.cpp
; Line 85
$LN5:
	mov	QWORD PTR [rsp+8], rcx
	sub	rsp, 56					; 00000038H
; Line 86
	mov	rax, QWORD PTR this$[rsp]
	add	rax, 8
	mov	rcx, rax
	call	??C?$QScopedPointer@VQObjectData@@U?$QScopedPointerDeleter@VQObjectData@@@@@@QEBAPEAVQObjectData@@XZ ; QScopedPointer<QObjectData,QScopedPointerDeleter<QObjectData> >::operator->
	cmp	QWORD PTR [rax+40], 0
	je	SHORT $LN3@metaObject
	mov	rax, QWORD PTR this$[rsp]
	add	rax, 8
	mov	rcx, rax
	call	??C?$QScopedPointer@VQObjectData@@U?$QScopedPointerDeleter@VQObjectData@@@@@@QEBAPEAVQObjectData@@XZ ; QScopedPointer<QObjectData,QScopedPointerDeleter<QObjectData> >::operator->
	mov	rcx, rax
	call	QWORD PTR __imp_?dynamicMetaObject@QObjectData@@QEBAPEAUQMetaObject@@XZ
	mov	QWORD PTR tv82[rsp], rax
	jmp	SHORT $LN4@metaObject
$LN3@metaObject:
	lea	rax, OFFSET FLAT:?staticMetaObject@redo_undo@@2UQMetaObject@@B ; redo_undo::staticMetaObject
	mov	QWORD PTR tv82[rsp], rax
$LN4@metaObject:
	mov	rax, QWORD PTR tv82[rsp]
; Line 87
	add	rsp, 56					; 00000038H
	ret	0
?metaObject@redo_undo@@UEBAPEBUQMetaObject@@XZ ENDP	; redo_undo::metaObject
_TEXT	ENDS
; Function compile flags: /Odtp
;	COMDAT ??C?$QScopedPointer@VQObjectData@@U?$QScopedPointerDeleter@VQObjectData@@@@@@QEBAPEAVQObjectData@@XZ
_TEXT	SEGMENT
this$ = 8
??C?$QScopedPointer@VQObjectData@@U?$QScopedPointerDeleter@VQObjectData@@@@@@QEBAPEAVQObjectData@@XZ PROC ; QScopedPointer<QObjectData,QScopedPointerDeleter<QObjectData> >::operator->, COMDAT
; File c:\qt\qt5.8.0\5.8\msvc2015_64\include\qtcore\qscopedpointer.h
; Line 117
	mov	QWORD PTR [rsp+8], rcx
; Line 118
	mov	rax, QWORD PTR this$[rsp]
	mov	rax, QWORD PTR [rax]
; Line 119
	ret	0
??C?$QScopedPointer@VQObjectData@@U?$QScopedPointerDeleter@VQObjectData@@@@@@QEBAPEAVQObjectData@@XZ ENDP ; QScopedPointer<QObjectData,QScopedPointerDeleter<QObjectData> >::operator->
_TEXT	ENDS
; Function compile flags: /Odtp
;	COMDAT ?__empty_global_delete@@YAXPEAX_K@Z
_TEXT	SEGMENT
__formal$ = 8
__formal$ = 16
?__empty_global_delete@@YAXPEAX_K@Z PROC		; __empty_global_delete, COMDAT
; File h:\project_learn\redo_undo\redo_undo\generatedfiles\debug\moc_redo_undo.cpp
; Line 115
	mov	QWORD PTR [rsp+16], rdx
	mov	QWORD PTR [rsp+8], rcx
	ret	0
?__empty_global_delete@@YAXPEAX_K@Z ENDP		; __empty_global_delete
_TEXT	ENDS
; Function compile flags: /Odtp
;	COMDAT ?__empty_global_delete@@YAXPEAX@Z
_TEXT	SEGMENT
__formal$ = 8
?__empty_global_delete@@YAXPEAX@Z PROC			; __empty_global_delete, COMDAT
; File h:\project_learn\redo_undo\redo_undo\generatedfiles\debug\moc_redo_undo.cpp
; Line 115
	mov	QWORD PTR [rsp+8], rcx
	ret	0
?__empty_global_delete@@YAXPEAX@Z ENDP			; __empty_global_delete
_TEXT	ENDS
END
